; ModuleID = '29/563.c'
source_filename = "29/563.c"
target datalayout = "e-m:e-p270:32:32-p271:32:32-p272:64:64-i64:64-f80:128-n8:16:32:64-S128"
target triple = "x86_64-pc-linux-gnu"

@.str = private unnamed_addr constant [3 x i8] c"%d\00", align 1
@.str.1 = private unnamed_addr constant [7 x i8] c"2.000\0A\00", align 1
@.str.2 = private unnamed_addr constant [7 x i8] c"%.3lf\0A\00", align 1

; Function Attrs: noinline nounwind uwtable
define dso_local i32 @main() #0 {
  %1 = alloca i32, align 4
  %2 = alloca i32, align 4
  %3 = alloca i32, align 4
  %4 = alloca i32, align 4
  %5 = alloca i32, align 4
  %6 = alloca double, align 8
  %7 = alloca [100 x double], align 16
  %8 = alloca [100 x double], align 16
  store i32 0, i32* %1, align 4
  %9 = call i32 (i8*, ...) @__isoc99_scanf(i8* getelementptr inbounds ([3 x i8], [3 x i8]* @.str, i64 0, i64 0), i32* %2)
  store i32 0, i32* %4, align 4
  br label %10

10:                                               ; preds = %77, %0
  %11 = load i32, i32* %4, align 4
  %12 = load i32, i32* %2, align 4
  %13 = icmp slt i32 %11, %12
  br i1 %13, label %14, label %80

14:                                               ; preds = %10
  %15 = call i32 (i8*, ...) @__isoc99_scanf(i8* getelementptr inbounds ([3 x i8], [3 x i8]* @.str, i64 0, i64 0), i32* %3)
  %16 = getelementptr inbounds [100 x double], [100 x double]* %7, i64 0, i64 0
  store double 2.000000e+00, double* %16, align 16
  %17 = getelementptr inbounds [100 x double], [100 x double]* %7, i64 0, i64 1
  store double 3.000000e+00, double* %17, align 8
  %18 = getelementptr inbounds [100 x double], [100 x double]* %8, i64 0, i64 0
  store double 1.000000e+00, double* %18, align 16
  %19 = getelementptr inbounds [100 x double], [100 x double]* %8, i64 0, i64 1
  store double 2.000000e+00, double* %19, align 8
  store double 3.500000e+00, double* %6, align 8
  store i32 2, i32* %5, align 4
  br label %20

20:                                               ; preds = %65, %14
  %21 = load i32, i32* %5, align 4
  %22 = load i32, i32* %3, align 4
  %23 = icmp slt i32 %21, %22
  br i1 %23, label %24, label %68

24:                                               ; preds = %20
  %25 = load i32, i32* %5, align 4
  %26 = sub nsw i32 %25, 1
  %27 = sext i32 %26 to i64
  %28 = getelementptr inbounds [100 x double], [100 x double]* %7, i64 0, i64 %27
  %29 = load double, double* %28, align 8
  %30 = load i32, i32* %5, align 4
  %31 = sub nsw i32 %30, 2
  %32 = sext i32 %31 to i64
  %33 = getelementptr inbounds [100 x double], [100 x double]* %7, i64 0, i64 %32
  %34 = load double, double* %33, align 8
  %35 = fadd double %29, %34
  %36 = load i32, i32* %5, align 4
  %37 = sext i32 %36 to i64
  %38 = getelementptr inbounds [100 x double], [100 x double]* %7, i64 0, i64 %37
  store double %35, double* %38, align 8
  %39 = load i32, i32* %5, align 4
  %40 = sub nsw i32 %39, 1
  %41 = sext i32 %40 to i64
  %42 = getelementptr inbounds [100 x double], [100 x double]* %8, i64 0, i64 %41
  %43 = load double, double* %42, align 8
  %44 = load i32, i32* %5, align 4
  %45 = sub nsw i32 %44, 2
  %46 = sext i32 %45 to i64
  %47 = getelementptr inbounds [100 x double], [100 x double]* %8, i64 0, i64 %46
  %48 = load double, double* %47, align 8
  %49 = fadd double %43, %48
  %50 = load i32, i32* %5, align 4
  %51 = sext i32 %50 to i64
  %52 = getelementptr inbounds [100 x double], [100 x double]* %8, i64 0, i64 %51
  store double %49, double* %52, align 8
  %53 = load i32, i32* %5, align 4
  %54 = sext i32 %53 to i64
  %55 = getelementptr inbounds [100 x double], [100 x double]* %7, i64 0, i64 %54
  %56 = load double, double* %55, align 8
  %57 = fmul double 1.000000e+00, %56
  %58 = load i32, i32* %5, align 4
  %59 = sext i32 %58 to i64
  %60 = getelementptr inbounds [100 x double], [100 x double]* %8, i64 0, i64 %59
  %61 = load double, double* %60, align 8
  %62 = fdiv double %57, %61
  %63 = load double, double* %6, align 8
  %64 = fadd double %63, %62
  store double %64, double* %6, align 8
  br label %65

65:                                               ; preds = %24
  %66 = load i32, i32* %5, align 4
  %67 = add nsw i32 %66, 1
  store i32 %67, i32* %5, align 4
  br label %20

68:                                               ; preds = %20
  %69 = load i32, i32* %3, align 4
  %70 = icmp eq i32 %69, 1
  br i1 %70, label %71, label %73

71:                                               ; preds = %68
  %72 = call i32 (i8*, ...) @printf(i8* getelementptr inbounds ([7 x i8], [7 x i8]* @.str.1, i64 0, i64 0))
  br label %76

73:                                               ; preds = %68
  %74 = load double, double* %6, align 8
  %75 = call i32 (i8*, ...) @printf(i8* getelementptr inbounds ([7 x i8], [7 x i8]* @.str.2, i64 0, i64 0), double %74)
  br label %76

76:                                               ; preds = %73, %71
  br label %77

77:                                               ; preds = %76
  %78 = load i32, i32* %4, align 4
  %79 = add nsw i32 %78, 1
  store i32 %79, i32* %4, align 4
  br label %10

80:                                               ; preds = %10
  ret i32 0
}

declare dso_local i32 @__isoc99_scanf(i8*, ...) #1

declare dso_local i32 @printf(i8*, ...) #1


!llvm.module.flags = !{!0}
!llvm.ident = !{!1}

!0 = !{i32 1, !"wchar_size", i32 4}
!1 = !{!"clang version 10.0.0-4ubuntu1 "}
